; Function Attrs: nounwind uwtable
define dso_local ptr @ExecGetChildToRootMap(ptr noundef captures(none) %0) local_unnamed_addr #0 {
  %2 = getelementptr inbounds nuw i8, ptr %0, i64 336
  %3 = load i8, ptr %2, align 8, !range !8, !noundef !9
  %4 = trunc nuw i8 %3 to i1
  br i1 %4, label %._crit_edge, label %5

._crit_edge:                                      ; preds = %1
  %.phi.trans.insert = getelementptr inbounds nuw i8, ptr %0, i64 328
  %.pre = load ptr, ptr %.phi.trans.insert, align 8
  br label %20

5:                                                ; preds = %1
  %6 = getelementptr inbounds nuw i8, ptr %0, i64 360
  %7 = load ptr, ptr %6, align 8
  %.not = icmp eq ptr %7, null
  br i1 %.not, label %18, label %8

8:                                                ; preds = %5
  %9 = getelementptr inbounds nuw i8, ptr %0, i64 8
  %10 = load ptr, ptr %9, align 8
  %11 = getelementptr inbounds nuw i8, ptr %10, i64 64
  %12 = load ptr, ptr %11, align 8
  %13 = getelementptr inbounds nuw i8, ptr %7, i64 8
  %14 = load ptr, ptr %13, align 8
  %15 = getelementptr inbounds nuw i8, ptr %14, i64 64
  %16 = load ptr, ptr %15, align 8
  %17 = tail call ptr @convert_tuples_by_name(ptr noundef %12, ptr noundef %16) #12
  br label %18

18:                                               ; preds = %5, %8
  %.sink = phi ptr [ %17, %8 ], [ null, %5 ]
  %19 = getelementptr inbounds nuw i8, ptr %0, i64 328
  store ptr %.sink, ptr %19, align 8
  store i8 1, ptr %2, align 8
  br label %20

20:                                               ; preds = %._crit_edge, %18
  %21 = phi ptr [ %.pre, %._crit_edge ], [ %.sink, %18 ]
  ret ptr %21
}